target datalayout = "e-m:e-p270:32:32-p271:32:32-p272:64:64-i64:64-i128:128-f80:128-n8:16:32:64-S128"
target triple = "x86_64-pc-linux-gnu"

%struct.b2BodyId = type { i32, i16, i16 }
%struct.b2Vec2 = type { float, float }
%struct.b2BodyArray = type { ptr, i32, i32 }
%struct.b2World = type { %struct.b2ArenaAllocator, %struct.b2BroadPhase, %struct.b2ConstraintGraph, %struct.b2IdPool, %struct.b2BodyArray, %struct.b2IdPool, %struct.b2SolverSetArray, %struct.b2IdPool, %struct.b2JointArray, %struct.b2IdPool, %struct.b2ContactArray, %struct.b2IdPool, %struct.b2IslandArray, %struct.b2IdPool, %struct.b2IdPool, %struct.b2ShapeArray, %struct.b2ChainShapeArray, %struct.b2SensorArray, %struct.b2TaskContextArray, %struct.b2SensorTaskContextArray, %struct.b2BodyMoveEventArray, %struct.b2SensorBeginTouchEventArray, %struct.b2ContactBeginTouchEventArray, [2 x %struct.b2SensorEndTouchEventArray], [2 x %struct.b2ContactEndTouchEventArray], i32, %struct.b2ContactHitEventArray, %struct.b2BitSet, %struct.b2BitSet, %struct.b2BitSet, i64, i32, %struct.b2Vec2, float, float, float, float, float, float, float, float, ptr, ptr, i16, %struct.b2Profile, ptr, ptr, ptr, ptr, i32, ptr, ptr, ptr, ptr, ptr, float, i32, i32, i16, i8, i8, i8, i8, i8, i8 }
%struct.b2ArenaAllocator = type { ptr, i32, i32, i32, i32, %struct.b2ArenaEntryArray }
%struct.b2ArenaEntryArray = type { ptr, i32, i32 }
%struct.b2BroadPhase = type { [3 x %struct.b2DynamicTree], i32, %struct.b2HashSet, %struct.b2IntArray, ptr, ptr, i32, %struct.b2AtomicInt, %struct.b2HashSet }
%struct.b2DynamicTree = type { ptr, i32, i32, i32, i32, i32, ptr, ptr, ptr, ptr, i32 }
%struct.b2IntArray = type { ptr, i32, i32 }
%struct.b2AtomicInt = type { i32 }
%struct.b2HashSet = type { ptr, i32, i32 }
%struct.b2ConstraintGraph = type { [12 x %struct.b2GraphColor] }
%struct.b2GraphColor = type { %struct.b2BitSet, %struct.b2ContactSimArray, %struct.b2JointSimArray, %union.anon }
%struct.b2ContactSimArray = type { ptr, i32, i32 }
%struct.b2JointSimArray = type { ptr, i32, i32 }
%union.anon = type { ptr }
%struct.b2SolverSetArray = type { ptr, i32, i32 }
%struct.b2JointArray = type { ptr, i32, i32 }
%struct.b2ContactArray = type { ptr, i32, i32 }
%struct.b2IslandArray = type { ptr, i32, i32 }
%struct.b2IdPool = type { %struct.b2IntArray, i32 }
%struct.b2ShapeArray = type { ptr, i32, i32 }
%struct.b2ChainShapeArray = type { ptr, i32, i32 }
%struct.b2SensorArray = type { ptr, i32, i32 }
%struct.b2TaskContextArray = type { ptr, i32, i32 }
%struct.b2SensorTaskContextArray = type { ptr, i32, i32 }
%struct.b2BodyMoveEventArray = type { ptr, i32, i32 }
%struct.b2SensorBeginTouchEventArray = type { ptr, i32, i32 }
%struct.b2ContactBeginTouchEventArray = type { ptr, i32, i32 }
%struct.b2SensorEndTouchEventArray = type { ptr, i32, i32 }
%struct.b2ContactEndTouchEventArray = type { ptr, i32, i32 }
%struct.b2ContactHitEventArray = type { ptr, i32, i32 }
%struct.b2BitSet = type { ptr, i32, i32 }
%struct.b2Profile = type { float, float, float, float, float, float, float, float, float, float, float, float, float, float, float, float, float, float, float, float, float, float }
%struct.b2Body = type { [32 x i8], ptr, i32, i32, i32, i32, i32, i32, i32, i32, i32, i32, i32, i32, float, float, float, float, i32, i32, i32, i16, i8, i8, i8, i8 }
%struct.b2Shape = type { i32, i32, i32, i32, i32, i32, float, float, float, float, float, i32, %struct.b2AABB, %struct.b2AABB, %struct.b2Vec2, i32, %struct.b2Filter, ptr, i32, %union.anon.0, i16, i8, i8, i8, i8 }
%struct.b2AABB = type { %struct.b2Vec2, %struct.b2Vec2 }
%struct.b2Filter = type { i64, i64, i32 }
%union.anon.0 = type { %struct.b2Polygon }
%struct.b2Polygon = type { [8 x %struct.b2Vec2], [8 x %struct.b2Vec2], %struct.b2Vec2, float, i32 }
%struct.b2Contact = type { i32, i32, i32, [2 x %struct.b2ContactEdge], i32, i32, i32, i32, i32, i32, i32, i8 }
%struct.b2ContactEdge = type { i32, i32, i32 }
%struct.b2ShapeId = type { i32, i16, i16 }
%struct.b2ContactData = type { %struct.b2ShapeId, %struct.b2ShapeId, %struct.b2Manifold }
%struct.b2Manifold = type { %struct.b2Vec2, float, [2 x %struct.b2ManifoldPoint], i32 }
%struct.b2ManifoldPoint = type { %struct.b2Vec2, %struct.b2Vec2, %struct.b2Vec2, float, float, float, float, float, i16, i8 }
%struct.b2ContactSim = type { i32, i32, i32, i32, i32, float, float, float, float, %struct.b2Manifold, float, float, float, float, i32, %struct.b2SimplexCache }
%struct.b2SimplexCache = type { i16, [3 x i8], [3 x i8] }

; Function Attrs: inlinehint nounwind uwtable
define internal ptr @b2BodyArray_Get(ptr noundef %0, i32 noundef %1) #3 {
  %3 = alloca ptr, align 8
  %4 = alloca i32, align 4
  store ptr %0, ptr %3, align 8, !tbaa !12
  store i32 %1, ptr %4, align 4, !tbaa !3
  %5 = load ptr, ptr %3, align 8, !tbaa !12
  %6 = getelementptr inbounds nuw %struct.b2BodyArray, ptr %5, i32 0, i32 0
  %7 = load ptr, ptr %6, align 8, !tbaa !7
  %8 = load i32, ptr %4, align 4, !tbaa !3
  %9 = sext i32 %8 to i64
  %10 = getelementptr inbounds %struct.b2Body, ptr %7, i64 %9
  ret ptr %10
}

; Function Attrs: inlinehint nounwind uwtable
define internal ptr @b2ShapeArray_Get(ptr noundef %0, i32 noundef %1) #3 {
  %3 = alloca ptr, align 8
  %4 = alloca i32, align 4
  store ptr %0, ptr %3, align 8, !tbaa !12
  store i32 %1, ptr %4, align 4, !tbaa !3
  %5 = load ptr, ptr %3, align 8, !tbaa !12
  %6 = getelementptr inbounds nuw %struct.b2ShapeArray, ptr %5, i32 0, i32 0
  %7 = load ptr, ptr %6, align 8, !tbaa !210
  %8 = load i32, ptr %4, align 4, !tbaa !3
  %9 = sext i32 %8 to i64
  %10 = getelementptr inbounds %struct.b2Shape, ptr %7, i64 %9
  ret ptr %10
}

; Function Attrs: inlinehint nounwind uwtable
define internal ptr @b2ContactArray_Get(ptr noundef %0, i32 noundef %1) #3 {
  %3 = alloca ptr, align 8
  %4 = alloca i32, align 4
  store ptr %0, ptr %3, align 8, !tbaa !12
  store i32 %1, ptr %4, align 4, !tbaa !3
  %5 = load ptr, ptr %3, align 8, !tbaa !12
  %6 = getelementptr inbounds nuw %struct.b2ContactArray, ptr %5, i32 0, i32 0
  %7 = load ptr, ptr %6, align 8, !tbaa !225
  %8 = load i32, ptr %4, align 4, !tbaa !3
  %9 = sext i32 %8 to i64
  %10 = getelementptr inbounds %struct.b2Contact, ptr %7, i64 %9
  ret ptr %10
}

; Function Attrs: nounwind uwtable
define hidden ptr @b2GetBodyFullId(ptr noundef %0, i64 %1) #0 {
  %3 = alloca %struct.b2BodyId, align 4
  %4 = alloca ptr, align 8
  store i64 %1, ptr %3, align 4
  store ptr %0, ptr %4, align 8, !tbaa !24
  %5 = load ptr, ptr %4, align 8, !tbaa !24
  %6 = getelementptr inbounds nuw %struct.b2World, ptr %5, i32 0, i32 4
  %7 = getelementptr inbounds nuw %struct.b2BodyId, ptr %3, i32 0, i32 0
  %8 = load i32, ptr %7, align 4, !tbaa !26
  %9 = sub nsw i32 %8, 1
  %10 = call ptr @b2BodyArray_Get(ptr noundef %6, i32 noundef %9)
  ret ptr %10
}

; Function Attrs: nounwind uwtable
define i32 @b2Body_GetContactData(i64 %0, ptr noundef %1, i32 noundef %2) #0 {
  %4 = alloca i32, align 4
  %5 = alloca %struct.b2BodyId, align 4
  %6 = alloca ptr, align 8
  %7 = alloca i32, align 4
  %8 = alloca ptr, align 8
  %9 = alloca i32, align 4
  %10 = alloca ptr, align 8
  %11 = alloca i32, align 4
  %12 = alloca i32, align 4
  %13 = alloca i32, align 4
  %14 = alloca i32, align 4
  %15 = alloca ptr, align 8
  %16 = alloca ptr, align 8
  %17 = alloca ptr, align 8
  %18 = alloca %struct.b2ShapeId, align 4
  %19 = alloca %struct.b2ShapeId, align 4
  %20 = alloca ptr, align 8
  store i64 %0, ptr %5, align 4
  store ptr %1, ptr %6, align 8, !tbaa !212
  store i32 %2, ptr %7, align 4, !tbaa !3
  call void @llvm.lifetime.start.p0(i64 8, ptr %8) #8
  %21 = getelementptr inbounds nuw %struct.b2BodyId, ptr %5, i32 0, i32 1
  %22 = load i16, ptr %21, align 4, !tbaa !87
  %23 = zext i16 %22 to i32
  %24 = call ptr @b2GetWorldLocked(i32 noundef %23)
  store ptr %24, ptr %8, align 8, !tbaa !24
  %25 = load ptr, ptr %8, align 8, !tbaa !24
  %26 = icmp eq ptr %25, null
  br i1 %26, label %27, label %28

27:                                               ; preds = %3
  store i32 0, ptr %4, align 4
  store i32 1, ptr %9, align 4
  br label %127

28:                                               ; preds = %3
  call void @llvm.lifetime.start.p0(i64 8, ptr %10) #8
  %29 = load ptr, ptr %8, align 8, !tbaa !24
  %30 = load i64, ptr %5, align 4
  %31 = call ptr @b2GetBodyFullId(ptr noundef %29, i64 %30)
  store ptr %31, ptr %10, align 8, !tbaa !29
  call void @llvm.lifetime.start.p0(i64 4, ptr %11) #8
  %32 = load ptr, ptr %10, align 8, !tbaa !29
  %33 = getelementptr inbounds nuw %struct.b2Body, ptr %32, i32 0, i32 4
  %34 = load i32, ptr %33, align 8, !tbaa !153
  store i32 %34, ptr %11, align 4, !tbaa !3
  call void @llvm.lifetime.start.p0(i64 4, ptr %12) #8
  store i32 0, ptr %12, align 4, !tbaa !3
  br label %35

35:                                               ; preds = %117, %28
  %36 = load i32, ptr %11, align 4, !tbaa !3
  %37 = icmp ne i32 %36, -1
  br i1 %37, label %38, label %42

38:                                               ; preds = %35
  %39 = load i32, ptr %12, align 4, !tbaa !3
  %40 = load i32, ptr %7, align 4, !tbaa !3
  %41 = icmp slt i32 %39, %40
  br label %42

42:                                               ; preds = %38, %35
  %43 = phi i1 [ false, %35 ], [ %41, %38 ]
  br i1 %43, label %44, label %125

44:                                               ; preds = %42
  call void @llvm.lifetime.start.p0(i64 4, ptr %13) #8
  %45 = load i32, ptr %11, align 4, !tbaa !3
  %46 = ashr i32 %45, 1
  store i32 %46, ptr %13, align 4, !tbaa !3
  call void @llvm.lifetime.start.p0(i64 4, ptr %14) #8
  %47 = load i32, ptr %11, align 4, !tbaa !3
  %48 = and i32 %47, 1
  store i32 %48, ptr %14, align 4, !tbaa !3
  call void @llvm.lifetime.start.p0(i64 8, ptr %15) #8
  %49 = load ptr, ptr %8, align 8, !tbaa !24
  %50 = getelementptr inbounds nuw %struct.b2World, ptr %49, i32 0, i32 10
  %51 = load i32, ptr %13, align 4, !tbaa !3
  %52 = call ptr @b2ContactArray_Get(ptr noundef %50, i32 noundef %51)
  store ptr %52, ptr %15, align 8, !tbaa !206
  %53 = load ptr, ptr %15, align 8, !tbaa !206
  %54 = getelementptr inbounds nuw %struct.b2Contact, ptr %53, i32 0, i32 10
  %55 = load i32, ptr %54, align 4, !tbaa !214
  %56 = and i32 %55, 1
  %57 = icmp ne i32 %56, 0
  br i1 %57, label %58, label %117

58:                                               ; preds = %44
  call void @llvm.lifetime.start.p0(i64 8, ptr %16) #8
  %59 = load ptr, ptr %8, align 8, !tbaa !24
  %60 = getelementptr inbounds nuw %struct.b2World, ptr %59, i32 0, i32 15
  %61 = load ptr, ptr %15, align 8, !tbaa !206
  %62 = getelementptr inbounds nuw %struct.b2Contact, ptr %61, i32 0, i32 4
  %63 = load i32, ptr %62, align 4, !tbaa !216
  %64 = call ptr @b2ShapeArray_Get(ptr noundef %60, i32 noundef %63)
  store ptr %64, ptr %16, align 8, !tbaa !190
  call void @llvm.lifetime.start.p0(i64 8, ptr %17) #8
  %65 = load ptr, ptr %8, align 8, !tbaa !24
  %66 = getelementptr inbounds nuw %struct.b2World, ptr %65, i32 0, i32 15
  %67 = load ptr, ptr %15, align 8, !tbaa !206
  %68 = getelementptr inbounds nuw %struct.b2Contact, ptr %67, i32 0, i32 5
  %69 = load i32, ptr %68, align 4, !tbaa !217
  %70 = call ptr @b2ShapeArray_Get(ptr noundef %66, i32 noundef %69)
  store ptr %70, ptr %17, align 8, !tbaa !190
  %71 = load ptr, ptr %6, align 8, !tbaa !212
  %72 = load i32, ptr %12, align 4, !tbaa !3
  %73 = sext i32 %72 to i64
  %74 = getelementptr inbounds %struct.b2ContactData, ptr %71, i64 %73
  %75 = getelementptr inbounds nuw %struct.b2ContactData, ptr %74, i32 0, i32 0
  %76 = getelementptr inbounds nuw %struct.b2ShapeId, ptr %18, i32 0, i32 0
  %77 = load ptr, ptr %16, align 8, !tbaa !190
  %78 = getelementptr inbounds nuw %struct.b2Shape, ptr %77, i32 0, i32 0
  %79 = load i32, ptr %78, align 8, !tbaa !195
  %80 = add nsw i32 %79, 1
  store i32 %80, ptr %76, align 4, !tbaa !218
  %81 = getelementptr inbounds nuw %struct.b2ShapeId, ptr %18, i32 0, i32 1
  %82 = getelementptr inbounds nuw %struct.b2BodyId, ptr %5, i32 0, i32 1
  %83 = load i16, ptr %82, align 4, !tbaa !87
  store i16 %83, ptr %81, align 4, !tbaa !220
  %84 = getelementptr inbounds nuw %struct.b2ShapeId, ptr %18, i32 0, i32 2
  %85 = load ptr, ptr %16, align 8, !tbaa !190
  %86 = getelementptr inbounds nuw %struct.b2Shape, ptr %85, i32 0, i32 20
  %87 = load i16, ptr %86, align 4, !tbaa !221
  store i16 %87, ptr %84, align 2, !tbaa !222
  call void @llvm.memcpy.p0.p0.i64(ptr align 4 %75, ptr align 4 %18, i64 8, i1 false), !tbaa.struct !95
  %88 = load ptr, ptr %6, align 8, !tbaa !212
  %89 = load i32, ptr %12, align 4, !tbaa !3
  %90 = sext i32 %89 to i64
  %91 = getelementptr inbounds %struct.b2ContactData, ptr %88, i64 %90
  %92 = getelementptr inbounds nuw %struct.b2ContactData, ptr %91, i32 0, i32 1
  %93 = getelementptr inbounds nuw %struct.b2ShapeId, ptr %19, i32 0, i32 0
  %94 = load ptr, ptr %17, align 8, !tbaa !190
  %95 = getelementptr inbounds nuw %struct.b2Shape, ptr %94, i32 0, i32 0
  %96 = load i32, ptr %95, align 8, !tbaa !195
  %97 = add nsw i32 %96, 1
  store i32 %97, ptr %93, align 4, !tbaa !218
  %98 = getelementptr inbounds nuw %struct.b2ShapeId, ptr %19, i32 0, i32 1
  %99 = getelementptr inbounds nuw %struct.b2BodyId, ptr %5, i32 0, i32 1
  %100 = load i16, ptr %99, align 4, !tbaa !87
  store i16 %100, ptr %98, align 4, !tbaa !220
  %101 = getelementptr inbounds nuw %struct.b2ShapeId, ptr %19, i32 0, i32 2
  %102 = load ptr, ptr %17, align 8, !tbaa !190
  %103 = getelementptr inbounds nuw %struct.b2Shape, ptr %102, i32 0, i32 20
  %104 = load i16, ptr %103, align 4, !tbaa !221
  store i16 %104, ptr %101, align 2, !tbaa !222
  call void @llvm.memcpy.p0.p0.i64(ptr align 4 %92, ptr align 4 %19, i64 8, i1 false), !tbaa.struct !95
  call void @llvm.lifetime.start.p0(i64 8, ptr %20) #8
  %105 = load ptr, ptr %8, align 8, !tbaa !24
  %106 = load ptr, ptr %15, align 8, !tbaa !206
  %107 = call ptr @b2GetContactSim(ptr noundef %105, ptr noundef %106)
  store ptr %107, ptr %20, align 8, !tbaa !177
  %108 = load ptr, ptr %6, align 8, !tbaa !212
  %109 = load i32, ptr %12, align 4, !tbaa !3
  %110 = sext i32 %109 to i64
  %111 = getelementptr inbounds %struct.b2ContactData, ptr %108, i64 %110
  %112 = getelementptr inbounds nuw %struct.b2ContactData, ptr %111, i32 0, i32 2
  %113 = load ptr, ptr %20, align 8, !tbaa !177
  %114 = getelementptr inbounds nuw %struct.b2ContactSim, ptr %113, i32 0, i32 9
  call void @llvm.memcpy.p0.p0.i64(ptr align 4 %112, ptr align 4 %114, i64 112, i1 false), !tbaa.struct !223
  %115 = load i32, ptr %12, align 4, !tbaa !3
  %116 = add nsw i32 %115, 1
  store i32 %116, ptr %12, align 4, !tbaa !3
  call void @llvm.lifetime.end.p0(i64 8, ptr %20) #8
  call void @llvm.lifetime.end.p0(i64 8, ptr %17) #8
  call void @llvm.lifetime.end.p0(i64 8, ptr %16) #8
  br label %117

117:                                              ; preds = %58, %44
  %118 = load ptr, ptr %15, align 8, !tbaa !206
  %119 = getelementptr inbounds nuw %struct.b2Contact, ptr %118, i32 0, i32 3
  %120 = load i32, ptr %14, align 4, !tbaa !3
  %121 = sext i32 %120 to i64
  %122 = getelementptr inbounds [2 x %struct.b2ContactEdge], ptr %119, i64 0, i64 %121
  %123 = getelementptr inbounds nuw %struct.b2ContactEdge, ptr %122, i32 0, i32 2
  %124 = load i32, ptr %123, align 4, !tbaa !207
  store i32 %124, ptr %11, align 4, !tbaa !3
  call void @llvm.lifetime.end.p0(i64 8, ptr %15) #8
  call void @llvm.lifetime.end.p0(i64 4, ptr %14) #8
  call void @llvm.lifetime.end.p0(i64 4, ptr %13) #8
  br label %35, !llvm.loop !224

125:                                              ; preds = %42
  %126 = load i32, ptr %12, align 4, !tbaa !3
  store i32 %126, ptr %4, align 4
  store i32 1, ptr %9, align 4
  call void @llvm.lifetime.end.p0(i64 4, ptr %12) #8
  call void @llvm.lifetime.end.p0(i64 4, ptr %11) #8
  call void @llvm.lifetime.end.p0(i64 8, ptr %10) #8
  br label %127

127:                                              ; preds = %125, %27
  call void @llvm.lifetime.end.p0(i64 8, ptr %8) #8
  %128 = load i32, ptr %4, align 4
  ret i32 %128
}