; Function Attrs: nounwind uwtable
define i32 @b2Body_GetContactData(i64 %0, ptr noundef writeonly captures(none) %1, i32 noundef %2) local_unnamed_addr #0 {
  %.sroa.235.0.extract.shift = lshr i64 %0, 32
  %.sroa.235.0.extract.trunc = trunc i64 %.sroa.235.0.extract.shift to i16
  %4 = trunc nuw i64 %.sroa.235.0.extract.shift to i32
  %5 = and i32 %4, 65535
  %6 = tail call ptr @b2GetWorldLocked(i32 noundef %5) #10
  %7 = icmp eq ptr %6, null
  br i1 %7, label %.loopexit, label %8

8:                                                ; preds = %3
  %9 = getelementptr inbounds nuw i8, ptr %6, i64 1032
  %.val.i = load ptr, ptr %9, align 8, !tbaa !10
  %10 = shl i64 %0, 32
  %sext.i = add i64 %10, -4294967296
  %11 = ashr exact i64 %sext.i, 25
  %12 = getelementptr inbounds i8, ptr %.val.i, i64 %11
  %13 = getelementptr inbounds nuw i8, ptr %12, i64 48
  %.03944 = load i32, ptr %13, align 4, !tbaa !164
  %14 = icmp ne i32 %.03944, -1
  %15 = icmp sgt i32 %2, 0
  %16 = and i1 %14, %15
  br i1 %16, label %.lr.ph, label %.loopexit

.lr.ph:                                           ; preds = %8
  %17 = getelementptr inbounds nuw i8, ptr %6, i64 1152
  %18 = getelementptr inbounds nuw i8, ptr %6, i64 1256
  br label %19

19:                                               ; preds = %.lr.ph, %50
  %.03946 = phi i32 [ %.03944, %.lr.ph ], [ %.039, %50 ]
  %.04045 = phi i32 [ 0, %.lr.ph ], [ %.1, %50 ]
  %20 = ashr i32 %.03946, 1
  %.val = load ptr, ptr %17, align 8, !tbaa !160
  %21 = sext i32 %20 to i64
  %22 = getelementptr inbounds %struct.b2Contact, ptr %.val, i64 %21
  %23 = getelementptr inbounds nuw i8, ptr %22, i64 60
  %24 = load i32, ptr %23, align 4, !tbaa !182
  %25 = and i32 %24, 1
  %.not = icmp eq i32 %25, 0
  br i1 %.not, label %50, label %26

26:                                               ; preds = %19
  %27 = getelementptr inbounds nuw i8, ptr %22, i64 36
  %28 = load i32, ptr %27, align 4, !tbaa !184
  %.val43 = load ptr, ptr %18, align 8, !tbaa !165
  %29 = sext i32 %28 to i64
  %30 = getelementptr inbounds %struct.b2Shape, ptr %.val43, i64 %29
  %31 = getelementptr inbounds nuw i8, ptr %22, i64 40
  %32 = load i32, ptr %31, align 4, !tbaa !185
  %33 = sext i32 %32 to i64
  %34 = getelementptr inbounds %struct.b2Shape, ptr %.val43, i64 %33
  %35 = sext i32 %.04045 to i64
  %36 = getelementptr inbounds %struct.b2ContactData, ptr %1, i64 %35
  %37 = load i32, ptr %30, align 8, !tbaa !170
  %38 = add nsw i32 %37, 1
  %39 = getelementptr inbounds nuw i8, ptr %30, i64 276
  %40 = load i16, ptr %39, align 4, !tbaa !186
  store i32 %38, ptr %36, align 4, !tbaa !164
  %.sroa.22.0..sroa_idx = getelementptr inbounds nuw i8, ptr %36, i64 4
  store i16 %.sroa.235.0.extract.trunc, ptr %.sroa.22.0..sroa_idx, align 4, !tbaa !187
  %.sroa.33.0..sroa_idx = getelementptr inbounds nuw i8, ptr %36, i64 6
  store i16 %40, ptr %.sroa.33.0..sroa_idx, align 2, !tbaa !187
  %41 = getelementptr inbounds nuw i8, ptr %36, i64 8
  %42 = load i32, ptr %34, align 8, !tbaa !170
  %43 = add nsw i32 %42, 1
  %44 = getelementptr inbounds nuw i8, ptr %34, i64 276
  %45 = load i16, ptr %44, align 4, !tbaa !186
  store i32 %43, ptr %41, align 4, !tbaa !164
  %.sroa.2.0..sroa_idx = getelementptr inbounds nuw i8, ptr %36, i64 12
  store i16 %.sroa.235.0.extract.trunc, ptr %.sroa.2.0..sroa_idx, align 4, !tbaa !187
  %.sroa.3.0..sroa_idx = getelementptr inbounds nuw i8, ptr %36, i64 14
  store i16 %45, ptr %.sroa.3.0..sroa_idx, align 2, !tbaa !187
  %46 = tail call ptr @b2GetContactSim(ptr noundef nonnull %6, ptr noundef nonnull %22) #10
  %47 = getelementptr inbounds nuw i8, ptr %36, i64 16
  %48 = getelementptr inbounds nuw i8, ptr %46, i64 36
  tail call void @llvm.memcpy.p0.p0.i64(ptr noundef nonnull align 4 dereferenceable(112) %47, ptr noundef nonnull align 4 dereferenceable(112) %48, i64 112, i1 false), !tbaa.struct !188
  %49 = add nsw i32 %.04045, 1
  br label %50

50:                                               ; preds = %26, %19
  %.1 = phi i32 [ %49, %26 ], [ %.04045, %19 ]
  %51 = getelementptr inbounds nuw i8, ptr %22, i64 12
  %52 = trunc i32 %.03946 to i1
  %.offs = select i1 %52, i64 20, i64 8
  %53 = getelementptr inbounds nuw i8, ptr %51, i64 %.offs
  %.039 = load i32, ptr %53, align 4, !tbaa !164
  %54 = icmp ne i32 %.039, -1
  %55 = icmp slt i32 %.1, %2
  %56 = select i1 %54, i1 %55, i1 false
  br i1 %56, label %19, label %.loopexit, !llvm.loop !189

.loopexit:                                        ; preds = %50, %8, %3
  %.0 = phi i32 [ 0, %3 ], [ 0, %8 ], [ %.1, %50 ]
  ret i32 %.0
}